; Function Attrs: mustprogress nounwind uwtable
define void @_ZN6icu_7717StringTrieBuilderD2Ev(ptr noundef nonnull align 8 dereferenceable(16) initializes((0, 8)) %0) unnamed_addr #1 align 2 personality ptr @__gxx_personality_v0 {
  store ptr getelementptr inbounds nuw inrange(-16, 160) (i8, ptr @_ZTVN6icu_7717StringTrieBuilderE, i64 16), ptr %0, align 8, !tbaa !3
  %2 = getelementptr inbounds nuw i8, ptr %0, i64 8
  %3 = load ptr, ptr %2, align 8, !tbaa !6
  invoke void @uhash_close_77(ptr noundef %3)
          to label %4 unwind label %5

4:                                                ; preds = %1
  store ptr null, ptr %2, align 8, !tbaa !6
  tail call void @_ZN6icu_777UObjectD2Ev(ptr noundef nonnull align 8 dereferenceable(8) %0) #16
  ret void

5:                                                ; preds = %1
  %6 = landingpad { ptr, i32 }
          catch ptr null
  %7 = extractvalue { ptr, i32 } %6, 0
  tail call void @__clang_call_terminate(ptr %7) #17
  unreachable
}